target datalayout = "e-m:e-p270:32:32-p271:32:32-p272:64:64-i64:64-i128:128-f80:128-n8:16:32:64-S128"
target triple = "x86_64-pc-linux-gnu"

%struct.RBasic = type { i64, i64 }
%struct.RRegexp = type { %struct.RBasic, ptr, i64, i64 }

@rb_eRegexpTimeoutError = hidden global i64 0, align 8
@.str.1 = private unnamed_addr constant [21 x i8] c"regexp match timeout\00", align 1

; Function Attrs: nounwind sspstrong uwtable
define dso_local i64 @rb_reg_onig_match(i64 noundef %0, i64 noundef %1, ptr noundef %2, ptr noundef %3, ptr noundef %4) #0 {
  %6 = alloca i64, align 8
  %7 = alloca i64, align 8
  %8 = alloca ptr, align 8
  %9 = alloca ptr, align 8
  %10 = alloca ptr, align 8
  %11 = alloca ptr, align 8
  %12 = alloca i8, align 1
  %13 = alloca i64, align 8
  %14 = alloca [90 x i8], align 16
  store i64 %0, ptr %6, align 8, !tbaa !11
  store i64 %1, ptr %7, align 8, !tbaa !11
  store ptr %2, ptr %8, align 8, !tbaa !7
  store ptr %3, ptr %9, align 8, !tbaa !7
  store ptr %4, ptr %10, align 8, !tbaa !32
  call void @llvm.lifetime.start.p0(i64 8, ptr %11) #28
  %15 = load i64, ptr %6, align 8, !tbaa !11
  %16 = load i64, ptr %7, align 8, !tbaa !11
  %17 = call ptr @rb_reg_prepare_re(i64 noundef %15, i64 noundef %16)
  store ptr %17, ptr %11, align 8, !tbaa !53
  call void @llvm.lifetime.start.p0(i64 1, ptr %12) #28
  %18 = load ptr, ptr %11, align 8, !tbaa !53
  %19 = load i64, ptr %6, align 8, !tbaa !11
  %20 = inttoptr i64 %19 to ptr
  %21 = getelementptr inbounds nuw %struct.RRegexp, ptr %20, i32 0, i32 1
  %22 = load ptr, ptr %21, align 8, !tbaa !50
  %23 = icmp ne ptr %18, %22
  %24 = zext i1 %23 to i8
  store i8 %24, ptr %12, align 1, !tbaa !70
  %25 = load i8, ptr %12, align 1, !tbaa !70, !range !72, !noundef !73
  %26 = trunc i8 %25 to i1
  br i1 %26, label %33, label %27

27:                                               ; preds = %5
  %28 = load i64, ptr %6, align 8, !tbaa !11
  %29 = inttoptr i64 %28 to ptr
  %30 = getelementptr inbounds nuw %struct.RRegexp, ptr %29, i32 0, i32 3
  %31 = load i64, ptr %30, align 8, !tbaa !59
  %32 = add i64 %31, 1
  store i64 %32, ptr %30, align 8, !tbaa !59
  br label %33

33:                                               ; preds = %27, %5
  call void @llvm.lifetime.start.p0(i64 8, ptr %13) #28
  %34 = load ptr, ptr %8, align 8, !tbaa !7
  %35 = load ptr, ptr %11, align 8, !tbaa !53
  %36 = load i64, ptr %7, align 8, !tbaa !11
  %37 = load ptr, ptr %10, align 8, !tbaa !32
  %38 = load ptr, ptr %9, align 8, !tbaa !7
  %39 = call i64 %34(ptr noundef %35, i64 noundef %36, ptr noundef %37, ptr noundef %38)
  store i64 %39, ptr %13, align 8, !tbaa !11
  %40 = load i8, ptr %12, align 1, !tbaa !70, !range !72, !noundef !73
  %41 = trunc i8 %40 to i1
  br i1 %41, label %48, label %42

42:                                               ; preds = %33
  %43 = load i64, ptr %6, align 8, !tbaa !11
  %44 = inttoptr i64 %43 to ptr
  %45 = getelementptr inbounds nuw %struct.RRegexp, ptr %44, i32 0, i32 3
  %46 = load i64, ptr %45, align 8, !tbaa !59
  %47 = add i64 %46, -1
  store i64 %47, ptr %45, align 8, !tbaa !59
  br label %48

48:                                               ; preds = %42, %33
  %49 = load i8, ptr %12, align 1, !tbaa !70, !range !72, !noundef !73
  %50 = trunc i8 %49 to i1
  br i1 %50, label %51, label %53

51:                                               ; preds = %48
  %52 = load ptr, ptr %11, align 8, !tbaa !53
  call void @onig_free(ptr noundef %52)
  br label %53

53:                                               ; preds = %51, %48
  %54 = load i64, ptr %13, align 8, !tbaa !11
  %55 = icmp slt i64 %54, 0
  br i1 %55, label %56, label %70

56:                                               ; preds = %53
  %57 = load ptr, ptr %10, align 8, !tbaa !32
  call void @onig_region_free(ptr noundef %57, i32 noundef 0)
  %58 = load i64, ptr %13, align 8, !tbaa !11
  switch i64 %58, label %61 [
    i64 -1, label %69
    i64 -23, label %59
  ]

59:                                               ; preds = %56
  %60 = load i64, ptr @rb_eRegexpTimeoutError, align 8, !tbaa !11
  call void (i64, ptr, ...) @rb_raise(i64 noundef %60, ptr noundef @.str.1) #30
  unreachable

61:                                               ; preds = %56
  call void @llvm.lifetime.start.p0(i64 90, ptr %14) #28
  call void @llvm.memset.p0.i64(ptr align 16 %14, i8 0, i64 90, i1 false)
  %62 = getelementptr inbounds [90 x i8], ptr %14, i64 0, i64 0
  %63 = load i64, ptr %13, align 8, !tbaa !11
  %64 = trunc i64 %63 to i32
  %65 = sext i32 %64 to i64
  %66 = call i32 (ptr, i64, ...) @onig_error_code_to_str(ptr noundef %62, i64 noundef %65)
  %67 = getelementptr inbounds [90 x i8], ptr %14, i64 0, i64 0
  %68 = load i64, ptr %6, align 8, !tbaa !11
  call void @rb_reg_raise(ptr noundef %67, i64 noundef %68) #30
  unreachable

69:                                               ; preds = %56
  br label %70

70:                                               ; preds = %69, %53
  %71 = load i64, ptr %13, align 8, !tbaa !11
  call void @llvm.lifetime.end.p0(i64 8, ptr %13) #28
  call void @llvm.lifetime.end.p0(i64 1, ptr %12) #28
  call void @llvm.lifetime.end.p0(i64 8, ptr %11) #28
  ret i64 %71
}