; Function Attrs: nounwind sspstrong uwtable
define dso_local range(i64 -1, -9223372036854775808) i64 @rb_reg_onig_match(i64 noundef %0, i64 noundef %1, ptr noundef readonly captures(none) %2, ptr noundef %3, ptr noundef %4) local_unnamed_addr #2 {
  %6 = alloca [90 x i8], align 16
  %7 = tail call ptr @rb_reg_prepare_re(i64 noundef %0, i64 noundef %1)
  %8 = inttoptr i64 %0 to ptr
  %9 = getelementptr inbounds nuw i8, ptr %8, i64 16
  %10 = load ptr, ptr %9, align 8, !tbaa !37
  %.not = icmp eq ptr %7, %10
  br i1 %.not, label %11, label %.critedge

11:                                               ; preds = %5
  %12 = getelementptr inbounds nuw i8, ptr %8, i64 32
  %13 = load i64, ptr %12, align 8, !tbaa !60
  %14 = add i64 %13, 1
  store i64 %14, ptr %12, align 8, !tbaa !60
  %15 = tail call i64 %2(ptr noundef %7, i64 noundef %1, ptr noundef %4, ptr noundef %3) #29
  %16 = load i64, ptr %12, align 8, !tbaa !60
  %17 = add i64 %16, -1
  store i64 %17, ptr %12, align 8, !tbaa !60
  br label %19

.critedge:                                        ; preds = %5
  %18 = tail call i64 %2(ptr noundef %7, i64 noundef %1, ptr noundef %4, ptr noundef %3) #29
  tail call void @onig_free(ptr noundef %7) #29
  br label %19

19:                                               ; preds = %11, %.critedge
  %20 = phi i64 [ %15, %11 ], [ %18, %.critedge ]
  %21 = icmp slt i64 %20, 0
  br i1 %21, label %22, label %28

22:                                               ; preds = %19
  tail call void @onig_region_free(ptr noundef %4, i32 noundef 0) #29
  switch i64 %20, label %25 [
    i64 -1, label %28
    i64 -23, label %23
  ]

23:                                               ; preds = %22
  %24 = load i64, ptr @rb_eRegexpTimeoutError, align 8, !tbaa !18
  tail call void (i64, ptr, ...) @rb_raise(i64 noundef %24, ptr noundef nonnull @.str.1) #30
  unreachable

25:                                               ; preds = %22
  call void @llvm.lifetime.start.p0(i64 90, ptr nonnull %6) #29
  call void @llvm.memset.p0.i64(ptr noundef nonnull align 16 dereferenceable(90) %6, i8 0, i64 90, i1 false)
  %sext = shl i64 %20, 32
  %26 = ashr exact i64 %sext, 32
  %27 = call i32 (ptr, i64, ...) @onig_error_code_to_str(ptr noundef nonnull %6, i64 noundef %26) #29
  call fastcc void @rb_reg_raise(ptr noundef %6, i64 noundef %0) #31
  unreachable

28:                                               ; preds = %22, %19
  ret i64 %20
}